Archive member included to satisfy reference by file (symbol)

c:/program files/microchip/xc32/v3.01/bin/bin/../../lib/gcc/pic32c/8.3.1/../../../../pic32c/lib/thumb/v7e-m+fp/hard\libpic32c.a(data_init.o)
                              build/my_config/production/_ext/64865378/startup_xc32.o (__pic32c_data_initialization)
c:/program files/microchip/xc32/v3.01/bin/bin/../../lib/gcc/pic32c/8.3.1/../../../../pic32c/lib/thumb/v7e-m+fp/hard\libc_nano.a(lib_a-init.o)
                              build/my_config/production/_ext/64865378/startup_xc32.o (__libc_init_array)
c:/program files/microchip/xc32/v3.01/bin/bin/../../lib/gcc/pic32c/8.3.1/../../../../pic32c/lib/thumb/v7e-m+fp/hard\libc_nano.a(lib_a-memcpy-stub.o)
                              build/my_config/production/_ext/1761505802/plib_can0.o (memcpy)
c:/program files/microchip/xc32/v3.01/bin/bin/../../lib/gcc/pic32c/8.3.1/../../../../pic32c/lib/thumb/v7e-m+fp/hard\libc_nano.a(lib_a-memset.o)
                              build/my_config/production/_ext/1761505802/plib_can0.o (memset)

Allocating common symbols
Common symbol       size              file

Can0MessageRAM      0x40              build/my_config/production/_ext/1032945309/MET_can_protocol.o
Can1MessageRAM      0x2c              build/my_config/production/_ext/1032945309/MET_can_open.o

Microchip PIC32 Memory-Usage Report

ROM Program-Memory Usage
section                    address  length [bytes]      (dec)  Description
-------                 ----------  -------------------------  -----------
.vectors                    0x2200          0x260         608   
.text                       0x2460           0x20          32  App's exec code 
.text.CAN0_InterruptHan     0x2480          0x498        1176   
.text.CAN1_InterruptHan     0x2918          0x2c8         712   
.text.CAN0_MessageRecei     0x2be0          0x188         392   
.text.CAN0_MessageTrans     0x2d68          0x13c         316   
.text.CAN0_MessageRAMCo     0x2ea4          0x130         304   
.text.CAN1_MessageRAMCo     0x2fd4           0xf4         244   
.text.CAN1_MessageRecei     0x30c8           0xd8         216   
.text.CAN0_Initialize       0x31a0           0xc4         196   
.text.CAN1_Initialize       0x3264           0xac         172   
.text.CLOCK_Initialize      0x3310           0xac         172   
.dinit                      0x33bc           0x90         144   
.text.__pic32c_data_ini     0x344c           0x88         136   
.text.PORT_Initialize       0x34d4           0x84         132   
.text.CAN0_ErrorGet         0x3558           0x6c         108   
.text.FDPLL0_Initialize     0x35c4           0x6c         108   
.text.CAN1_ErrorGet         0x3630           0x64         100   
.text.MET_Can_Protocol_     0x3694           0x5c          92   
.text.RTC_Initialize        0x36f0           0x5c          92   
.text.main                  0x374c           0x5c          92   
.text.MET_Can_Protocol_     0x37a8           0x58          88   
.text.MET_Can_Open_Star     0x3800           0x58          88   
.text.__NVIC_SetPriorit     0x3858           0x54          84   
.text.Reset_Handler         0x38ac           0x54          84   
.text.TC0_CompareInitia     0x3900           0x50          80   
.text.__NVIC_SetPriorit     0x3950           0x48          72   
.text.__libc_init_array     0x3998           0x48          72   
.text.GCLK0_Initialize      0x39e0           0x44          68   
.text.FPU_Enable            0x3a24           0x44          68   
.text                       0x3a68           0x40          64  App's exec code 
.text.MET_Can_Protocol_     0x3aa8           0x40          64   
.text.MET_Can_Open_Rece     0x3ae8           0x40          64   
.text.ICache_Enable         0x3b28           0x40          64   
.text.NVIC_Initialize       0x3b68           0x3e          62   
.text.Dummy_App_Func        0x3ba6            0x2           2   
.text.CAN0_RxCallbackRe     0x3ba8           0x3c          60   
.text.CAN1_RxCallbackRe     0x3be4           0x3c          60   
.text.__NVIC_EnableIRQ      0x3c20           0x3c          60   
.text.RTC_InterruptHand     0x3c5c           0x3c          60   
.text.MET_Can_Protocol_     0x3c98           0x38          56   
.text.MET_Can_Open_Loop     0x3cd0           0x38          56   
.text.SYS_Initialize        0x3d08           0x38          56   
.text.rtcEventHandler       0x3d40           0x38          56   
.text.CANDlcToLengthGet     0x3d78           0x60          96   
.text.OSC32KCTRL_Initia     0x3dd8           0x30          48   
.text.RTC_Timer32Start      0x3e08           0x30          48   
.text.GCLK1_Initialize      0x3e38           0x2c          44   
.text.GCLK2_Initialize      0x3e64           0x2c          44   
.text.GCLK3_Initialize      0x3e90           0x2c          44   
.text.TC0_CompareStart      0x3ebc           0x2c          44   
.text.RTC_Timer32Callba     0x3ee8           0x28          40   
.text.EVSYS_Initialize      0x3f10           0x24          36   
.text.TCM_Configure         0x3f34           0x24          36   
.text.MET_DefaultError_     0x3f58           0x1c          28   
.text.MET_CanOpen_Error     0x3f74           0x1c          28   
.text.NVMCTRL_Initializ     0x3f90           0x1c          28   
.text.memcpy                0x3fac           0x1c          28   
.rodata                     0x3fc8           0x18          24  Read-only const 
.text.MET_Can_Open_Init     0x3fe0           0x14          20   
.rodata                     0x3ff4           0x14          20  Read-only const 
.text.memset                0x4008           0x10          16   
.text.OSCCTRL_Initializ     0x4018            0xe          14   
.text.DFLL_Initialize       0x4026            0xe          14   
.text.PAC_Initialize        0x4034            0xe          14   
.text.NonMaskableInt_Ha     0x4042            0x6           6   
.text.HardFault_Handler     0x4048            0x6           6   
.text.DebugMonitor_Hand     0x404e            0x6           6   
.text.MemoryManagement_     0x4054            0x6           6   
.text.BusFault_Handler      0x405a            0x6           6   
.text.UsageFault_Handle     0x4060            0x6           6   
.text.Dummy_Handler         0x4066            0x2           2   
      Total ROM used  :      0x1e68        7784  0.7% of 0xfe000
        --------------------------------------------------------------------------
         Total Program Memory used  :      0x1e68        7784  0.7% of 0xfe000
        --------------------------------------------------------------------------


RAM Data-Memory Usage
section                    address  length [bytes]      (dec)  Description
-------                 ----------  -------------------------  -----------
.bss                    0x20000010            0xc          12  Uninitialized data 
.data                   0x2000001c            0x4           4  Initialized data 
.bss                    0x20000020           0x6c         108  Uninitialized data 
.bss                    0x2000008c           0x71         113  Uninitialized data 
.bss                    0x200000fd            0x1           1  Uninitialized data 
.bss                    0x20000100           0x71         113  Uninitialized data 
.bss                    0x20000174           0x68         104  Uninitialized data 
.bss                    0x200001dc            0x4           4  Uninitialized data 
         Total RAM used  :       0x1cb         459  0.2% of 0x3fff0
        --------------------------------------------------------------------------
            Total Data Memory used  :       0x1cb         459  0.2% of 0x3fff0
        --------------------------------------------------------------------------


Dynamic Data-Memory Reservation
section                    address  length [bytes]      (dec)  Description
-------                 ----------  -------------------------  -----------
heap                    0x200001e8          0x200         512  Reserved for heap 
stack                   0x20000400        0x3fbf8      261112  Reserved for stack 

        --------------------------------------------------------------------------

Discarded input sections

 .text          0x00000000        0x0 c:/program files/microchip/xc32/v3.01/bin/bin/../../lib/gcc/pic32c/8.3.1/thumb/v7e-m+fp/hard/crti.o
 .data          0x00000000        0x0 c:/program files/microchip/xc32/v3.01/bin/bin/../../lib/gcc/pic32c/8.3.1/thumb/v7e-m+fp/hard/crti.o
 .bss           0x00000000        0x0 c:/program files/microchip/xc32/v3.01/bin/bin/../../lib/gcc/pic32c/8.3.1/thumb/v7e-m+fp/hard/crti.o
 .xc_stack_usage.hdr
                0x00000000        0xe c:/program files/microchip/xc32/v3.01/bin/bin/../../lib/gcc/pic32c/8.3.1/thumb/v7e-m+fp/hard/crti.o
 .xc_stack_usage
                0x00000000       0x26 c:/program files/microchip/xc32/v3.01/bin/bin/../../lib/gcc/pic32c/8.3.1/thumb/v7e-m+fp/hard/crti.o
 .data          0x00000000        0x4 c:/program files/microchip/xc32/v3.01/bin/bin/../../lib/gcc/pic32c/8.3.1/thumb/v7e-m+fp/hard/crtbegin.o
 .xc_stack_usage
                0x00000000       0x3c c:/program files/microchip/xc32/v3.01/bin/bin/../../lib/gcc/pic32c/8.3.1/thumb/v7e-m+fp/hard/crtbegin.o
 .xc_stack_usage.hdr
                0x00000000        0xe c:/program files/microchip/xc32/v3.01/bin/bin/../../lib/gcc/pic32c/8.3.1/thumb/v7e-m+fp/hard/crtbegin.o
 .text          0x00000000        0x0 build/my_config/production/_ext/1032945309/MET_Bootloader.o
 .bss           0x00000000        0x0 build/my_config/production/_ext/1032945309/MET_Bootloader.o
 .text.__NVIC_SystemReset
                0x00000000       0x28 build/my_config/production/_ext/1032945309/MET_Bootloader.o
 .text.MET_Bootloader_Activation_Request
                0x00000000       0x24 build/my_config/production/_ext/1032945309/MET_Bootloader.o
 .text          0x00000000        0x0 build/my_config/production/_ext/1032945309/MET_can_protocol.o
 .data          0x00000000        0x0 build/my_config/production/_ext/1032945309/MET_can_protocol.o
 .text.MET_Can_Protocol_SendAnswer
                0x00000000       0x7c build/my_config/production/_ext/1032945309/MET_can_protocol.o
 .text.MET_Can_Protocol_Loop
                0x00000000       0x28 build/my_config/production/_ext/1032945309/MET_can_protocol.o
 .text          0x00000000        0x0 build/my_config/production/_ext/1032945309/MET_can_open.o
 .data          0x00000000        0x0 build/my_config/production/_ext/1032945309/MET_can_open.o
 .text.MET_Can_Open_TestFrame
                0x00000000       0x58 build/my_config/production/_ext/1032945309/MET_can_open.o
 .text.MET_CanOpen_SendAnswer
                0x00000000       0x7c build/my_config/production/_ext/1032945309/MET_can_open.o
 .text          0x00000000        0x0 build/my_config/production/_ext/1761505802/plib_can0.o
 .data          0x00000000        0x0 build/my_config/production/_ext/1761505802/plib_can0.o
 .text.CAN0_TransmitEventFIFOElementGet
                0x00000000       0xb0 build/my_config/production/_ext/1761505802/plib_can0.o
 .text.CAN0_ErrorCountGet
                0x00000000       0x36 build/my_config/production/_ext/1761505802/plib_can0.o
 .text.CAN0_InterruptGet
                0x00000000       0x28 build/my_config/production/_ext/1761505802/plib_can0.o
 .text.CAN0_InterruptClear
                0x00000000       0x1c build/my_config/production/_ext/1761505802/plib_can0.o
 .text.CAN0_TxFIFOIsFull
                0x00000000       0x26 build/my_config/production/_ext/1761505802/plib_can0.o
 .text.CAN0_StandardFilterElementSet
                0x00000000       0x44 build/my_config/production/_ext/1761505802/plib_can0.o
 .text.CAN0_StandardFilterElementGet
                0x00000000       0x44 build/my_config/production/_ext/1761505802/plib_can0.o
 .text.CAN0_SleepModeEnter
                0x00000000       0x2e build/my_config/production/_ext/1761505802/plib_can0.o
 .text.CAN0_SleepModeExit
                0x00000000       0x4e build/my_config/production/_ext/1761505802/plib_can0.o
 .text.CAN0_TxCallbackRegister
                0x00000000       0x30 build/my_config/production/_ext/1761505802/plib_can0.o
 .text          0x00000000        0x0 build/my_config/production/_ext/1761505802/plib_can1.o
 .data          0x00000000        0x0 build/my_config/production/_ext/1761505802/plib_can1.o
 .text.CAN1_MessageTransmit
                0x00000000      0x134 build/my_config/production/_ext/1761505802/plib_can1.o
 .text.CAN1_TransmitEventFIFOElementGet
                0x00000000       0xac build/my_config/production/_ext/1761505802/plib_can1.o
 .text.CAN1_ErrorCountGet
                0x00000000       0x38 build/my_config/production/_ext/1761505802/plib_can1.o
 .text.CAN1_InterruptGet
                0x00000000       0x2c build/my_config/production/_ext/1761505802/plib_can1.o
 .text.CAN1_InterruptClear
                0x00000000       0x20 build/my_config/production/_ext/1761505802/plib_can1.o
 .text.CAN1_TxFIFOIsFull
                0x00000000       0x28 build/my_config/production/_ext/1761505802/plib_can1.o
 .text.CAN1_StandardFilterElementSet
                0x00000000       0x44 build/my_config/production/_ext/1761505802/plib_can1.o
 .text.CAN1_StandardFilterElementGet
                0x00000000       0x44 build/my_config/production/_ext/1761505802/plib_can1.o
 .text.CAN1_SleepModeEnter
                0x00000000       0x2c build/my_config/production/_ext/1761505802/plib_can1.o
 .text.CAN1_SleepModeExit
                0x00000000       0x48 build/my_config/production/_ext/1761505802/plib_can1.o
 .text.CAN1_TxCallbackRegister
                0x00000000       0x30 build/my_config/production/_ext/1761505802/plib_can1.o
 .text          0x00000000        0x0 build/my_config/production/_ext/590292936/plib_clock.o
 .data          0x00000000        0x0 build/my_config/production/_ext/590292936/plib_clock.o
 .bss           0x00000000        0x0 build/my_config/production/_ext/590292936/plib_clock.o
 .text          0x00000000        0x0 build/my_config/production/_ext/1227883696/plib_cmcc.o
 .data          0x00000000        0x0 build/my_config/production/_ext/1227883696/plib_cmcc.o
 .bss           0x00000000        0x0 build/my_config/production/_ext/1227883696/plib_cmcc.o
 .text.CMCC_Disable
                0x00000000       0x2c build/my_config/production/_ext/1227883696/plib_cmcc.o
 .text.CMCC_EnableICache
                0x00000000       0x40 build/my_config/production/_ext/1227883696/plib_cmcc.o
 .text.CMCC_DisableICache
                0x00000000       0x40 build/my_config/production/_ext/1227883696/plib_cmcc.o
 .text.CMCC_EnableDCache
                0x00000000       0x40 build/my_config/production/_ext/1227883696/plib_cmcc.o
 .text.CMCC_DisableDCache
                0x00000000       0x40 build/my_config/production/_ext/1227883696/plib_cmcc.o
 .text.CMCC_InvalidateAll
                0x00000000       0x34 build/my_config/production/_ext/1227883696/plib_cmcc.o
 .debug_info    0x00000000      0x5b2 build/my_config/production/_ext/1227883696/plib_cmcc.o
 .debug_abbrev  0x00000000       0x9d build/my_config/production/_ext/1227883696/plib_cmcc.o
 .debug_loc     0x00000000      0x198 build/my_config/production/_ext/1227883696/plib_cmcc.o
 .debug_aranges
                0x00000000       0x48 build/my_config/production/_ext/1227883696/plib_cmcc.o
 .debug_ranges  0x00000000       0x38 build/my_config/production/_ext/1227883696/plib_cmcc.o
 .debug_line    0x00000000      0x251 build/my_config/production/_ext/1227883696/plib_cmcc.o
 .debug_str     0x00000000        0x0 build/my_config/production/_ext/1227883696/plib_cmcc.o
 .comment       0x00000000       0x54 build/my_config/production/_ext/1227883696/plib_cmcc.o
 .debug_frame   0x00000000       0xd0 build/my_config/production/_ext/1227883696/plib_cmcc.o
 .ARM.attributes
                0x00000000       0x34 build/my_config/production/_ext/1227883696/plib_cmcc.o
 .text          0x00000000        0x0 build/my_config/production/_ext/1761507328/plib_dsu.o
 .data          0x00000000        0x0 build/my_config/production/_ext/1761507328/plib_dsu.o
 .bss           0x00000000        0x0 build/my_config/production/_ext/1761507328/plib_dsu.o
 .text.DSU_CRCCalculate
                0x00000000       0x7c build/my_config/production/_ext/1761507328/plib_dsu.o
 .debug_info    0x00000000      0x783 build/my_config/production/_ext/1761507328/plib_dsu.o
 .debug_abbrev  0x00000000       0xe4 build/my_config/production/_ext/1761507328/plib_dsu.o
 .debug_loc     0x00000000       0x5c build/my_config/production/_ext/1761507328/plib_dsu.o
 .debug_aranges
                0x00000000       0x20 build/my_config/production/_ext/1761507328/plib_dsu.o
 .debug_ranges  0x00000000       0x10 build/my_config/production/_ext/1761507328/plib_dsu.o
 .debug_line    0x00000000      0x1ff build/my_config/production/_ext/1761507328/plib_dsu.o
 .debug_str     0x00000000        0x0 build/my_config/production/_ext/1761507328/plib_dsu.o
 .comment       0x00000000       0x54 build/my_config/production/_ext/1761507328/plib_dsu.o
 .debug_frame   0x00000000       0x38 build/my_config/production/_ext/1761507328/plib_dsu.o
 .ARM.attributes
                0x00000000       0x34 build/my_config/production/_ext/1761507328/plib_dsu.o
 .text          0x00000000        0x0 build/my_config/production/_ext/592442422/plib_evsys.o
 .data          0x00000000        0x0 build/my_config/production/_ext/592442422/plib_evsys.o
 .bss           0x00000000        0x0 build/my_config/production/_ext/592442422/plib_evsys.o
 .text          0x00000000        0x0 build/my_config/production/_ext/1227547160/plib_nvic.o
 .data          0x00000000        0x0 build/my_config/production/_ext/1227547160/plib_nvic.o
 .bss           0x00000000        0x0 build/my_config/production/_ext/1227547160/plib_nvic.o
 .text.NVIC_INT_Enable
                0x00000000       0x14 build/my_config/production/_ext/1227547160/plib_nvic.o
 .text.NVIC_INT_Disable
                0x00000000       0x2c build/my_config/production/_ext/1227547160/plib_nvic.o
 .text.NVIC_INT_Restore
                0x00000000       0x2a build/my_config/production/_ext/1227547160/plib_nvic.o
 .text          0x00000000        0x0 build/my_config/production/_ext/1792891082/plib_nvmctrl.o
 .data          0x00000000        0x0 build/my_config/production/_ext/1792891082/plib_nvmctrl.o
 .bss           0x00000000        0x8 build/my_config/production/_ext/1792891082/plib_nvmctrl.o
 .text.NVMCTRL_Read
                0x00000000       0x22 build/my_config/production/_ext/1792891082/plib_nvmctrl.o
 .text.NVMCTRL_SetWriteMode
                0x00000000       0x34 build/my_config/production/_ext/1792891082/plib_nvmctrl.o
 .text.NVMCTRL_QuadWordWrite
                0x00000000       0x84 build/my_config/production/_ext/1792891082/plib_nvmctrl.o
 .text.NVMCTRL_DoubleWordWrite
                0x00000000       0x84 build/my_config/production/_ext/1792891082/plib_nvmctrl.o
 .text.NVMCTRL_PageWrite
                0x00000000       0x68 build/my_config/production/_ext/1792891082/plib_nvmctrl.o
 .text.NVMCTRL_BlockErase
                0x00000000       0x34 build/my_config/production/_ext/1792891082/plib_nvmctrl.o
 .text.NVMCTRL_ErrorGet
                0x00000000       0x40 build/my_config/production/_ext/1792891082/plib_nvmctrl.o
 .text.NVMCTRL_StatusGet
                0x00000000       0x24 build/my_config/production/_ext/1792891082/plib_nvmctrl.o
 .text.NVMCTRL_IsBusy
                0x00000000       0x28 build/my_config/production/_ext/1792891082/plib_nvmctrl.o
 .text.NVMCTRL_RegionLock
                0x00000000       0x28 build/my_config/production/_ext/1792891082/plib_nvmctrl.o
 .text.NVMCTRL_RegionUnlock
                0x00000000       0x28 build/my_config/production/_ext/1792891082/plib_nvmctrl.o
 .text.NVMCTRL_RegionLockStatusGet
                0x00000000       0x18 build/my_config/production/_ext/1792891082/plib_nvmctrl.o
 .text.NVMCTRL_SmartEEPROM_IsBusy
                0x00000000       0x24 build/my_config/production/_ext/1792891082/plib_nvmctrl.o
 .text.NVMCTRL_SmartEEPROMStatusGet
                0x00000000       0x24 build/my_config/production/_ext/1792891082/plib_nvmctrl.o
 .text.NVMCTRL_SmartEEPROM_IsActiveSectorFull
                0x00000000       0x28 build/my_config/production/_ext/1792891082/plib_nvmctrl.o
 .text.NVMCTRL_BankSwap
                0x00000000       0x1c build/my_config/production/_ext/1792891082/plib_nvmctrl.o
 .text.NVMCTRL_SmartEEPROMSectorReallocate
                0x00000000       0x1c build/my_config/production/_ext/1792891082/plib_nvmctrl.o
 .text.NVMCTRL_SmartEEPROMFlushPageBuffer
                0x00000000       0x24 build/my_config/production/_ext/1792891082/plib_nvmctrl.o
 .text          0x00000000        0x0 build/my_config/production/_ext/1761518284/plib_pac.o
 .data          0x00000000        0x0 build/my_config/production/_ext/1761518284/plib_pac.o
 .bss           0x00000000        0x0 build/my_config/production/_ext/1761518284/plib_pac.o
 .text.PAC_PeripheralIsProtected
                0x00000000       0x4c build/my_config/production/_ext/1761518284/plib_pac.o
 .text.PAC_PeripheralProtectSetup
                0x00000000       0x32 build/my_config/production/_ext/1761518284/plib_pac.o
 .text          0x00000000        0x0 build/my_config/production/_ext/1227494009/plib_port.o
 .data          0x00000000        0x0 build/my_config/production/_ext/1227494009/plib_port.o
 .bss           0x00000000        0x0 build/my_config/production/_ext/1227494009/plib_port.o
 .text.PORT_GroupRead
                0x00000000       0x18 build/my_config/production/_ext/1227494009/plib_port.o
 .text.PORT_GroupWrite
                0x00000000       0x30 build/my_config/production/_ext/1227494009/plib_port.o
 .text.PORT_GroupLatchRead
                0x00000000       0x18 build/my_config/production/_ext/1227494009/plib_port.o
 .text.PORT_GroupSet
                0x00000000       0x1c build/my_config/production/_ext/1227494009/plib_port.o
 .text.PORT_GroupClear
                0x00000000       0x1c build/my_config/production/_ext/1227494009/plib_port.o
 .text.PORT_GroupToggle
                0x00000000       0x1c build/my_config/production/_ext/1227494009/plib_port.o
 .text.PORT_GroupInputEnable
                0x00000000       0x1c build/my_config/production/_ext/1227494009/plib_port.o
 .text.PORT_GroupOutputEnable
                0x00000000       0x1c build/my_config/production/_ext/1227494009/plib_port.o
 .text.PORT_PinPeripheralFunctionConfig
                0x00000000       0xa0 build/my_config/production/_ext/1227494009/plib_port.o
 .text.PORT_PinGPIOConfig
                0x00000000       0x4e build/my_config/production/_ext/1227494009/plib_port.o
 .text          0x00000000        0x0 build/my_config/production/_ext/1761520795/plib_rtc_timer.o
 .data          0x00000000        0x0 build/my_config/production/_ext/1761520795/plib_rtc_timer.o
 .text.RTC_Timer32Stop
                0x00000000       0x30 build/my_config/production/_ext/1761520795/plib_rtc_timer.o
 .text.RTC_Timer32CounterSet
                0x00000000       0x2c build/my_config/production/_ext/1761520795/plib_rtc_timer.o
 .text.RTC_Timer32Compare0Set
                0x00000000       0x2c build/my_config/production/_ext/1761520795/plib_rtc_timer.o
 .text.RTC_Timer32Compare1Set
                0x00000000       0x2c build/my_config/production/_ext/1761520795/plib_rtc_timer.o
 .text.RTC_Timer32CounterGet
                0x00000000       0x24 build/my_config/production/_ext/1761520795/plib_rtc_timer.o
 .text.RTC_Timer32PeriodGet
                0x00000000       0x12 build/my_config/production/_ext/1761520795/plib_rtc_timer.o
 .text.RTC_Timer32FrequencyGet
                0x00000000       0x12 build/my_config/production/_ext/1761520795/plib_rtc_timer.o
 .text.RTC_Timer32InterruptEnable
                0x00000000       0x20 build/my_config/production/_ext/1761520795/plib_rtc_timer.o
 .text.RTC_Timer32InterruptDisable
                0x00000000       0x20 build/my_config/production/_ext/1761520795/plib_rtc_timer.o
 .text.RTC_BackupRegisterSet
                0x00000000       0x28 build/my_config/production/_ext/1761520795/plib_rtc_timer.o
 .text.RTC_BackupRegisterGet
                0x00000000       0x24 build/my_config/production/_ext/1761520795/plib_rtc_timer.o
 .text.RTC_TamperSourceGet
                0x00000000       0x18 build/my_config/production/_ext/1761520795/plib_rtc_timer.o
 .text.RTC_Timer32TimeStampGet
                0x00000000       0x18 build/my_config/production/_ext/1761520795/plib_rtc_timer.o
 .text          0x00000000        0x0 build/my_config/production/_ext/220271371/plib_tc0.o
 .data          0x00000000        0x0 build/my_config/production/_ext/220271371/plib_tc0.o
 .bss           0x00000000        0x0 build/my_config/production/_ext/220271371/plib_tc0.o
 .text.TC0_CompareStop
                0x00000000       0x2c build/my_config/production/_ext/220271371/plib_tc0.o
 .text.TC0_CompareFrequencyGet
                0x00000000       0x12 build/my_config/production/_ext/220271371/plib_tc0.o
 .text.TC0_CompareCommandSet
                0x00000000       0x30 build/my_config/production/_ext/220271371/plib_tc0.o
 .text.TC0_Compare16bitCounterGet
                0x00000000       0x48 build/my_config/production/_ext/220271371/plib_tc0.o
 .text.TC0_Compare16bitCounterSet
                0x00000000       0x30 build/my_config/production/_ext/220271371/plib_tc0.o
 .text.TC0_Compare16bitPeriodSet
                0x00000000       0x38 build/my_config/production/_ext/220271371/plib_tc0.o
 .text.TC0_Compare16bitPeriodGet
                0x00000000       0x18 build/my_config/production/_ext/220271371/plib_tc0.o
 .text.TC0_Compare16bitMatch0Set
                0x00000000       0x38 build/my_config/production/_ext/220271371/plib_tc0.o
 .text.TC0_Compare16bitMatch1Set
                0x00000000       0x38 build/my_config/production/_ext/220271371/plib_tc0.o
 .text.TC0_CompareStatusGet
                0x00000000       0x28 build/my_config/production/_ext/220271371/plib_tc0.o
 .text          0x00000000        0x0 build/my_config/production/_ext/967047524/xc32_monitor.o
 .data          0x00000000        0x0 build/my_config/production/_ext/967047524/xc32_monitor.o
 .bss           0x00000000        0x0 build/my_config/production/_ext/967047524/xc32_monitor.o
 .text._mon_getc
                0x00000000       0x16 build/my_config/production/_ext/967047524/xc32_monitor.o
 .text._mon_putc
                0x00000000       0x16 build/my_config/production/_ext/967047524/xc32_monitor.o
 .debug_info    0x00000000      0x2b6 build/my_config/production/_ext/967047524/xc32_monitor.o
 .debug_abbrev  0x00000000       0x6c build/my_config/production/_ext/967047524/xc32_monitor.o
 .debug_loc     0x00000000       0xb8 build/my_config/production/_ext/967047524/xc32_monitor.o
 .debug_aranges
                0x00000000       0x28 build/my_config/production/_ext/967047524/xc32_monitor.o
 .debug_ranges  0x00000000       0x18 build/my_config/production/_ext/967047524/xc32_monitor.o
 .debug_line    0x00000000       0x76 build/my_config/production/_ext/967047524/xc32_monitor.o
 .debug_str     0x00000000        0x0 build/my_config/production/_ext/967047524/xc32_monitor.o
 .comment       0x00000000       0x54 build/my_config/production/_ext/967047524/xc32_monitor.o
 .debug_frame   0x00000000       0x60 build/my_config/production/_ext/967047524/xc32_monitor.o
 .ARM.attributes
                0x00000000       0x34 build/my_config/production/_ext/967047524/xc32_monitor.o
 .text          0x00000000        0x0 build/my_config/production/_ext/64865378/initialization.o
 .data          0x00000000        0x0 build/my_config/production/_ext/64865378/initialization.o
 .bss           0x00000000        0x0 build/my_config/production/_ext/64865378/initialization.o
 .text          0x00000000        0x0 build/my_config/production/_ext/64865378/startup_xc32.o
 .data          0x00000000        0x0 build/my_config/production/_ext/64865378/startup_xc32.o
 .bss           0x00000000        0x0 build/my_config/production/_ext/64865378/startup_xc32.o
 .text          0x00000000        0x0 build/my_config/production/_ext/64865378/interrupts.o
 .data          0x00000000        0x0 build/my_config/production/_ext/64865378/interrupts.o
 .bss           0x00000000        0x0 build/my_config/production/_ext/64865378/interrupts.o
 .text          0x00000000        0x0 build/my_config/production/_ext/64865378/exceptions.o
 .data          0x00000000        0x0 build/my_config/production/_ext/64865378/exceptions.o
 .bss           0x00000000        0x0 build/my_config/production/_ext/64865378/exceptions.o
 .text          0x00000000        0x0 build/my_config/production/_ext/64865378/libc_syscalls.o
 .data          0x00000000        0x0 build/my_config/production/_ext/64865378/libc_syscalls.o
 .bss           0x00000000        0x0 build/my_config/production/_ext/64865378/libc_syscalls.o
 .text._exit    0x00000000        0xa build/my_config/production/_ext/64865378/libc_syscalls.o
 .debug_info    0x00000000      0xf47 build/my_config/production/_ext/64865378/libc_syscalls.o
 .debug_abbrev  0x00000000      0x1d0 build/my_config/production/_ext/64865378/libc_syscalls.o
 .debug_loc     0x00000000       0x38 build/my_config/production/_ext/64865378/libc_syscalls.o
 .debug_aranges
                0x00000000       0x20 build/my_config/production/_ext/64865378/libc_syscalls.o
 .debug_ranges  0x00000000       0x10 build/my_config/production/_ext/64865378/libc_syscalls.o
 .debug_line    0x00000000      0x1d6 build/my_config/production/_ext/64865378/libc_syscalls.o
 .debug_str     0x00000000        0xe build/my_config/production/_ext/64865378/libc_syscalls.o
 .comment       0x00000000       0x54 build/my_config/production/_ext/64865378/libc_syscalls.o
 .debug_frame   0x00000000       0x2c build/my_config/production/_ext/64865378/libc_syscalls.o
 .ARM.attributes
                0x00000000       0x34 build/my_config/production/_ext/64865378/libc_syscalls.o
 .text          0x00000000        0x0 build/my_config/production/_ext/1360937237/main.o
 .data          0x00000000        0x0 build/my_config/production/_ext/1360937237/main.o
 .text          0x00000000        0x0 c:/program files/microchip/xc32/v3.01/bin/bin/../../lib/gcc/pic32c/8.3.1/../../../../pic32c/lib/thumb/v7e-m+fp/hard\libpic32c.a(data_init.o)
 .data          0x00000000        0x0 c:/program files/microchip/xc32/v3.01/bin/bin/../../lib/gcc/pic32c/8.3.1/../../../../pic32c/lib/thumb/v7e-m+fp/hard\libpic32c.a(data_init.o)
 .xc_stack_usage
                0x00000000       0x2a c:/program files/microchip/xc32/v3.01/bin/bin/../../lib/gcc/pic32c/8.3.1/../../../../pic32c/lib/thumb/v7e-m+fp/hard\libpic32c.a(data_init.o)
 .xc_stack_usage.hdr
                0x00000000        0xe c:/program files/microchip/xc32/v3.01/bin/bin/../../lib/gcc/pic32c/8.3.1/../../../../pic32c/lib/thumb/v7e-m+fp/hard\libpic32c.a(data_init.o)
 .text          0x00000000        0x0 c:/program files/microchip/xc32/v3.01/bin/bin/../../lib/gcc/pic32c/8.3.1/../../../../pic32c/lib/thumb/v7e-m+fp/hard\libc_nano.a(lib_a-init.o)
 .data          0x00000000        0x0 c:/program files/microchip/xc32/v3.01/bin/bin/../../lib/gcc/pic32c/8.3.1/../../../../pic32c/lib/thumb/v7e-m+fp/hard\libc_nano.a(lib_a-init.o)
 .bss           0x00000000        0x0 c:/program files/microchip/xc32/v3.01/bin/bin/../../lib/gcc/pic32c/8.3.1/../../../../pic32c/lib/thumb/v7e-m+fp/hard\libc_nano.a(lib_a-init.o)
 .xc_stack_usage
                0x00000000       0x1f c:/program files/microchip/xc32/v3.01/bin/bin/../../lib/gcc/pic32c/8.3.1/../../../../pic32c/lib/thumb/v7e-m+fp/hard\libc_nano.a(lib_a-init.o)
 .xc_stack_usage.hdr
                0x00000000        0xe c:/program files/microchip/xc32/v3.01/bin/bin/../../lib/gcc/pic32c/8.3.1/../../../../pic32c/lib/thumb/v7e-m+fp/hard\libc_nano.a(lib_a-init.o)
 .text          0x00000000        0x0 c:/program files/microchip/xc32/v3.01/bin/bin/../../lib/gcc/pic32c/8.3.1/../../../../pic32c/lib/thumb/v7e-m+fp/hard\libc_nano.a(lib_a-memcpy-stub.o)
 .data          0x00000000        0x0 c:/program files/microchip/xc32/v3.01/bin/bin/../../lib/gcc/pic32c/8.3.1/../../../../pic32c/lib/thumb/v7e-m+fp/hard\libc_nano.a(lib_a-memcpy-stub.o)
 .bss           0x00000000        0x0 c:/program files/microchip/xc32/v3.01/bin/bin/../../lib/gcc/pic32c/8.3.1/../../../../pic32c/lib/thumb/v7e-m+fp/hard\libc_nano.a(lib_a-memcpy-stub.o)
 .xc_stack_usage
                0x00000000       0x14 c:/program files/microchip/xc32/v3.01/bin/bin/../../lib/gcc/pic32c/8.3.1/../../../../pic32c/lib/thumb/v7e-m+fp/hard\libc_nano.a(lib_a-memcpy-stub.o)
 .xc_stack_usage.hdr
                0x00000000        0xe c:/program files/microchip/xc32/v3.01/bin/bin/../../lib/gcc/pic32c/8.3.1/../../../../pic32c/lib/thumb/v7e-m+fp/hard\libc_nano.a(lib_a-memcpy-stub.o)
 .text          0x00000000        0x0 c:/program files/microchip/xc32/v3.01/bin/bin/../../lib/gcc/pic32c/8.3.1/../../../../pic32c/lib/thumb/v7e-m+fp/hard\libc_nano.a(lib_a-memset.o)
 .data          0x00000000        0x0 c:/program files/microchip/xc32/v3.01/bin/bin/../../lib/gcc/pic32c/8.3.1/../../../../pic32c/lib/thumb/v7e-m+fp/hard\libc_nano.a(lib_a-memset.o)
 .bss           0x00000000        0x0 c:/program files/microchip/xc32/v3.01/bin/bin/../../lib/gcc/pic32c/8.3.1/../../../../pic32c/lib/thumb/v7e-m+fp/hard\libc_nano.a(lib_a-memset.o)
 .xc_stack_usage
                0x00000000       0x14 c:/program files/microchip/xc32/v3.01/bin/bin/../../lib/gcc/pic32c/8.3.1/../../../../pic32c/lib/thumb/v7e-m+fp/hard\libc_nano.a(lib_a-memset.o)
 .xc_stack_usage.hdr
                0x00000000        0xe c:/program files/microchip/xc32/v3.01/bin/bin/../../lib/gcc/pic32c/8.3.1/../../../../pic32c/lib/thumb/v7e-m+fp/hard\libc_nano.a(lib_a-memset.o)
 .text          0x00000000        0x0 c:/program files/microchip/xc32/v3.01/bin/bin/../../lib/gcc/pic32c/8.3.1/thumb/v7e-m+fp/hard/crtend.o
 .data          0x00000000        0x0 c:/program files/microchip/xc32/v3.01/bin/bin/../../lib/gcc/pic32c/8.3.1/thumb/v7e-m+fp/hard/crtend.o
 .bss           0x00000000        0x0 c:/program files/microchip/xc32/v3.01/bin/bin/../../lib/gcc/pic32c/8.3.1/thumb/v7e-m+fp/hard/crtend.o
 .eh_frame      0x00000000        0x4 c:/program files/microchip/xc32/v3.01/bin/bin/../../lib/gcc/pic32c/8.3.1/thumb/v7e-m+fp/hard/crtend.o
 .xc_stack_usage.hdr
                0x00000000        0xe c:/program files/microchip/xc32/v3.01/bin/bin/../../lib/gcc/pic32c/8.3.1/thumb/v7e-m+fp/hard/crtend.o
 .comment       0x00000000       0x54 c:/program files/microchip/xc32/v3.01/bin/bin/../../lib/gcc/pic32c/8.3.1/thumb/v7e-m+fp/hard/crtend.o
 .ARM.attributes
                0x00000000       0x32 c:/program files/microchip/xc32/v3.01/bin/bin/../../lib/gcc/pic32c/8.3.1/thumb/v7e-m+fp/hard/crtend.o
 .text          0x00000000        0x0 c:/program files/microchip/xc32/v3.01/bin/bin/../../lib/gcc/pic32c/8.3.1/thumb/v7e-m+fp/hard/crtn.o
 .data          0x00000000        0x0 c:/program files/microchip/xc32/v3.01/bin/bin/../../lib/gcc/pic32c/8.3.1/thumb/v7e-m+fp/hard/crtn.o
 .bss           0x00000000        0x0 c:/program files/microchip/xc32/v3.01/bin/bin/../../lib/gcc/pic32c/8.3.1/thumb/v7e-m+fp/hard/crtn.o
 .xc_stack_usage.hdr
                0x00000000        0xe c:/program files/microchip/xc32/v3.01/bin/bin/../../lib/gcc/pic32c/8.3.1/thumb/v7e-m+fp/hard/crtn.o

Memory Configuration

Name             Origin             Length             Attributes
rom              0x00002200         0x000fe000         xrl
ram              0x20000010         0x0003fff0         xw !r
tcm              0x03000000         0x00000000         xw
config_00804000  0x00804000         0x00000004
config_00804008  0x00804008         0x00000004
config_00804004  0x00804004         0x00000004
*default*        0x00000000         0xffffffff

Linker script and memory map

LOAD c:/program files/microchip/xc32/v3.01/bin/bin/../../lib/gcc/pic32c/8.3.1/thumb/v7e-m+fp/hard/crti.o
LOAD c:/program files/microchip/xc32/v3.01/bin/bin/../../lib/gcc/pic32c/8.3.1/thumb/v7e-m+fp/hard/crtbegin.o
LOAD build/my_config/production/_ext/1032945309/MET_Bootloader.o
LOAD build/my_config/production/_ext/1032945309/MET_can_protocol.o
LOAD build/my_config/production/_ext/1032945309/MET_can_open.o
LOAD build/my_config/production/_ext/1761505802/plib_can0.o
LOAD build/my_config/production/_ext/1761505802/plib_can1.o
LOAD build/my_config/production/_ext/590292936/plib_clock.o
LOAD build/my_config/production/_ext/1227883696/plib_cmcc.o
LOAD build/my_config/production/_ext/1761507328/plib_dsu.o
LOAD build/my_config/production/_ext/592442422/plib_evsys.o
LOAD build/my_config/production/_ext/1227547160/plib_nvic.o
LOAD build/my_config/production/_ext/1792891082/plib_nvmctrl.o
LOAD build/my_config/production/_ext/1761518284/plib_pac.o
LOAD build/my_config/production/_ext/1227494009/plib_port.o
LOAD build/my_config/production/_ext/1761520795/plib_rtc_timer.o
LOAD build/my_config/production/_ext/220271371/plib_tc0.o
LOAD build/my_config/production/_ext/967047524/xc32_monitor.o
LOAD build/my_config/production/_ext/64865378/initialization.o
LOAD build/my_config/production/_ext/64865378/startup_xc32.o
LOAD build/my_config/production/_ext/64865378/interrupts.o
LOAD build/my_config/production/_ext/64865378/exceptions.o
LOAD build/my_config/production/_ext/64865378/libc_syscalls.o
LOAD build/my_config/production/_ext/1360937237/main.o
                0x00000001                __MPLAB_BUILD = 0x1
                0x00100200                __rom_end = (ORIGIN (rom) + LENGTH (rom))
                0x20040000                __ram_end = (ORIGIN (ram) + LENGTH (ram))

.config_00804000
                0x00804000        0x4
 *(.config_00804000)
 .config_00804000
                0x00804000        0x4 build/my_config/production/_ext/64865378/initialization.o
                0x00804000                __config_00804000

.config_00804008
                0x00804008        0x4
 *(.config_00804008)
 .config_00804008
                0x00804008        0x4 build/my_config/production/_ext/64865378/initialization.o
                0x00804008                __config_00804008

.config_00804004
                0x00804004        0x4
 *(.config_00804004)
 .config_00804004
                0x00804004        0x4 build/my_config/production/_ext/64865378/initialization.o
                0x00804004                __config_00804004

.vectors        0x00002200      0x260
                0x00002200                . = ALIGN (0x4)
                0x00002200                _sfixed = .
 *(.vectors .vectors.* .vectors_default .vectors_default.*)
 .vectors       0x00002200      0x260 build/my_config/production/_ext/64865378/interrupts.o
                0x00002200                exception_table
 *(.isr_vector)
 *(.reset*)
 *(.after_vectors)

.text           0x00002460       0x20
                0x00002460                . = ALIGN (0x4)
 *(.glue_7t)
 .glue_7t       0x00002460        0x0 linker stubs
 *(.glue_7)
 .glue_7        0x00002460        0x0 linker stubs
 *(.gnu.linkonce.r.*)
 *(.ARM.extab* .gnu.linkonce.armextab.*)
                0x00002460                . = ALIGN (0x4)
 *(.init)
 .init          0x00002460        0x4 c:/program files/microchip/xc32/v3.01/bin/bin/../../lib/gcc/pic32c/8.3.1/thumb/v7e-m+fp/hard/crti.o
                0x00002460                _init
 .init          0x00002464        0x8 c:/program files/microchip/xc32/v3.01/bin/bin/../../lib/gcc/pic32c/8.3.1/thumb/v7e-m+fp/hard/crtn.o
                0x0000246c                . = ALIGN (0x4)
                0x0000246c                __preinit_array_start = .
 *(.preinit_array)
                0x0000246c                __preinit_array_end = .
                0x0000246c                . = ALIGN (0x4)
                0x0000246c                __init_array_start = .
 *(SORT_BY_NAME(.init_array.*))
 *(.init_array)
 .init_array    0x0000246c        0x4 c:/program files/microchip/xc32/v3.01/bin/bin/../../lib/gcc/pic32c/8.3.1/thumb/v7e-m+fp/hard/crtbegin.o
                0x00002470                __init_array_end = .
                0x00002470                . = ALIGN (0x4)
 *crtbegin.o(.ctors)
 *(EXCLUDE_FILE(*crtend.o) .ctors)
 *(SORT_BY_NAME(.ctors.*))
 *crtend.o(.ctors)
                0x00002470                . = ALIGN (0x4)
 *(.fini)
 .fini          0x00002470        0x4 c:/program files/microchip/xc32/v3.01/bin/bin/../../lib/gcc/pic32c/8.3.1/thumb/v7e-m+fp/hard/crti.o
                0x00002470                _fini
 .fini          0x00002474        0x8 c:/program files/microchip/xc32/v3.01/bin/bin/../../lib/gcc/pic32c/8.3.1/thumb/v7e-m+fp/hard/crtn.o
                0x0000247c                . = ALIGN (0x4)
                0x0000247c                __fini_array_start = .
 *(.fini_array)
 .fini_array    0x0000247c        0x4 c:/program files/microchip/xc32/v3.01/bin/bin/../../lib/gcc/pic32c/8.3.1/thumb/v7e-m+fp/hard/crtbegin.o
 *(SORT_BY_NAME(.fini_array.*))
                0x00002480                __fini_array_end = .
 *crtbegin.o(.dtors)
 *(EXCLUDE_FILE(*crtend.o) .dtors)
 *(SORT_BY_NAME(.dtors.*))
 *crtend.o(.dtors)
                0x00002480                . = ALIGN (0x4)
                0x00002480                _efixed = .
                [!provide]                PROVIDE (__exidx_start = .)

.ARM.exidx
 *(.ARM.exidx* .gnu.linkonce.armexidx.*)
                [!provide]                PROVIDE (__exidx_end = .)
                0x00002480                . = ALIGN (0x4)
                0x00002480                _etext = .

.bss            0x20000020       0x6c
                0x20000020                . = ALIGN (0x4)
                0x20000020                __bss_start__ = .
                0x20000020                _sbss = .
                0x20000020                _szero = .
 *(COMMON)
 COMMON         0x20000020       0x40 build/my_config/production/_ext/1032945309/MET_can_protocol.o
                0x20000020                Can0MessageRAM
 COMMON         0x20000060       0x2c build/my_config/production/_ext/1032945309/MET_can_open.o
                0x20000060                Can1MessageRAM
                0x2000008c                . = ALIGN (0x4)
                0x2000008c                __bss_end__ = .
                0x2000008c                _ebss = .
                0x2000008c                _ezero = .
                0x2000008c                . = ALIGN (0x4)
                0x2000008c                _end = .
                0x2003ffff                _ram_end_ = ((ORIGIN (ram) + LENGTH (ram)) - 0x1)
                0x00000200                _min_heap_size = 0x200
START GROUP
LOAD c:/program files/microchip/xc32/v3.01/bin/bin/../../lib/gcc/pic32c/8.3.1/../../../../pic32c/lib/thumb/v7e-m+fp/hard\libpic32c.a
LOAD c:/program files/microchip/xc32/v3.01/bin/bin/../../lib/gcc/pic32c/8.3.1/thumb/v7e-m+fp/hard\libgcc.a
LOAD c:/program files/microchip/xc32/v3.01/bin/bin/../../lib/gcc/pic32c/8.3.1/../../../../pic32c/lib/thumb/v7e-m+fp/hard\libm_nano.a
LOAD c:/program files/microchip/xc32/v3.01/bin/bin/../../lib/gcc/pic32c/8.3.1/../../../../pic32c/lib/thumb/v7e-m+fp/hard\libc_nano.a
END GROUP
LOAD c:/program files/microchip/xc32/v3.01/bin/bin/../../lib/gcc/pic32c/8.3.1/thumb/v7e-m+fp/hard/crtend.o
LOAD c:/program files/microchip/xc32/v3.01/bin/bin/../../lib/gcc/pic32c/8.3.1/thumb/v7e-m+fp/hard/crtn.o
OUTPUT(dist/my_config/production/FW301.X.production.elf elf32-littlearm)
LOAD stack
LOAD data_init

.ARM.attributes
                0x00000000       0x32
 .ARM.attributes
                0x00000000       0x1e c:/program files/microchip/xc32/v3.01/bin/bin/../../lib/gcc/pic32c/8.3.1/thumb/v7e-m+fp/hard/crti.o
 .ARM.attributes
                0x0000001e       0x34 c:/program files/microchip/xc32/v3.01/bin/bin/../../lib/gcc/pic32c/8.3.1/thumb/v7e-m+fp/hard/crtbegin.o
 .ARM.attributes
                0x00000052       0x34 build/my_config/production/_ext/1032945309/MET_Bootloader.o
 .ARM.attributes
                0x00000086       0x34 build/my_config/production/_ext/1032945309/MET_can_protocol.o
 .ARM.attributes
                0x000000ba       0x34 build/my_config/production/_ext/1032945309/MET_can_open.o
 .ARM.attributes
                0x000000ee       0x34 build/my_config/production/_ext/1761505802/plib_can0.o
 .ARM.attributes
                0x00000122       0x34 build/my_config/production/_ext/1761505802/plib_can1.o
 .ARM.attributes
                0x00000156       0x34 build/my_config/production/_ext/590292936/plib_clock.o
 .ARM.attributes
                0x0000018a       0x34 build/my_config/production/_ext/592442422/plib_evsys.o
 .ARM.attributes
                0x000001be       0x34 build/my_config/production/_ext/1227547160/plib_nvic.o
 .ARM.attributes
                0x000001f2       0x34 build/my_config/production/_ext/1792891082/plib_nvmctrl.o
 .ARM.attributes
                0x00000226       0x34 build/my_config/production/_ext/1761518284/plib_pac.o
 .ARM.attributes
                0x0000025a       0x34 build/my_config/production/_ext/1227494009/plib_port.o
 .ARM.attributes
                0x0000028e       0x34 build/my_config/production/_ext/1761520795/plib_rtc_timer.o
 .ARM.attributes
                0x000002c2       0x34 build/my_config/production/_ext/220271371/plib_tc0.o
 .ARM.attributes
                0x000002f6       0x34 build/my_config/production/_ext/64865378/initialization.o
 .ARM.attributes
                0x0000032a       0x34 build/my_config/production/_ext/64865378/startup_xc32.o
 .ARM.attributes
                0x0000035e       0x34 build/my_config/production/_ext/64865378/interrupts.o
 .ARM.attributes
                0x00000392       0x34 build/my_config/production/_ext/64865378/exceptions.o
 .ARM.attributes
                0x000003c6       0x34 build/my_config/production/_ext/1360937237/main.o
 .ARM.attributes
                0x000003fa       0x34 c:/program files/microchip/xc32/v3.01/bin/bin/../../lib/gcc/pic32c/8.3.1/../../../../pic32c/lib/thumb/v7e-m+fp/hard\libpic32c.a(data_init.o)
 .ARM.attributes
                0x0000042e       0x34 c:/program files/microchip/xc32/v3.01/bin/bin/../../lib/gcc/pic32c/8.3.1/../../../../pic32c/lib/thumb/v7e-m+fp/hard\libc_nano.a(lib_a-init.o)
 .ARM.attributes
                0x00000462       0x34 c:/program files/microchip/xc32/v3.01/bin/bin/../../lib/gcc/pic32c/8.3.1/../../../../pic32c/lib/thumb/v7e-m+fp/hard\libc_nano.a(lib_a-memcpy-stub.o)
 .ARM.attributes
                0x00000496       0x34 c:/program files/microchip/xc32/v3.01/bin/bin/../../lib/gcc/pic32c/8.3.1/../../../../pic32c/lib/thumb/v7e-m+fp/hard\libc_nano.a(lib_a-memset.o)
 .ARM.attributes
                0x000004ca       0x1e c:/program files/microchip/xc32/v3.01/bin/bin/../../lib/gcc/pic32c/8.3.1/thumb/v7e-m+fp/hard/crtn.o

.comment        0x00000000       0x53
 .comment       0x00000000       0x53 c:/program files/microchip/xc32/v3.01/bin/bin/../../lib/gcc/pic32c/8.3.1/thumb/v7e-m+fp/hard/crtbegin.o
                                 0x54 (size before relaxing)
 .comment       0x00000053       0x54 build/my_config/production/_ext/1032945309/MET_Bootloader.o
 .comment       0x00000053       0x54 build/my_config/production/_ext/1032945309/MET_can_protocol.o
 .comment       0x00000053       0x54 build/my_config/production/_ext/1032945309/MET_can_open.o
 .comment       0x00000053       0x54 build/my_config/production/_ext/1761505802/plib_can0.o
 .comment       0x00000053       0x54 build/my_config/production/_ext/1761505802/plib_can1.o
 .comment       0x00000053       0x54 build/my_config/production/_ext/590292936/plib_clock.o
 .comment       0x00000053       0x54 build/my_config/production/_ext/592442422/plib_evsys.o
 .comment       0x00000053       0x54 build/my_config/production/_ext/1227547160/plib_nvic.o
 .comment       0x00000053       0x54 build/my_config/production/_ext/1792891082/plib_nvmctrl.o
 .comment       0x00000053       0x54 build/my_config/production/_ext/1761518284/plib_pac.o
 .comment       0x00000053       0x54 build/my_config/production/_ext/1227494009/plib_port.o
 .comment       0x00000053       0x54 build/my_config/production/_ext/1761520795/plib_rtc_timer.o
 .comment       0x00000053       0x54 build/my_config/production/_ext/220271371/plib_tc0.o
 .comment       0x00000053       0x54 build/my_config/production/_ext/64865378/initialization.o
 .comment       0x00000053       0x54 build/my_config/production/_ext/64865378/startup_xc32.o
 .comment       0x00000053       0x54 build/my_config/production/_ext/64865378/interrupts.o
 .comment       0x00000053       0x54 build/my_config/production/_ext/64865378/exceptions.o
 .comment       0x00000053       0x54 build/my_config/production/_ext/1360937237/main.o
 .comment       0x00000053       0x54 c:/program files/microchip/xc32/v3.01/bin/bin/../../lib/gcc/pic32c/8.3.1/../../../../pic32c/lib/thumb/v7e-m+fp/hard\libpic32c.a(data_init.o)
 .comment       0x00000053       0x54 c:/program files/microchip/xc32/v3.01/bin/bin/../../lib/gcc/pic32c/8.3.1/../../../../pic32c/lib/thumb/v7e-m+fp/hard\libc_nano.a(lib_a-init.o)
 .comment       0x00000053       0x54 c:/program files/microchip/xc32/v3.01/bin/bin/../../lib/gcc/pic32c/8.3.1/../../../../pic32c/lib/thumb/v7e-m+fp/hard\libc_nano.a(lib_a-memcpy-stub.o)
 .comment       0x00000053       0x54 c:/program files/microchip/xc32/v3.01/bin/bin/../../lib/gcc/pic32c/8.3.1/../../../../pic32c/lib/thumb/v7e-m+fp/hard\libc_nano.a(lib_a-memset.o)

.debug_info     0x00000000    0x16ab9
 .debug_info    0x00000000     0x11ce build/my_config/production/_ext/1032945309/MET_Bootloader.o
 .debug_info    0x000011ce     0x17ea build/my_config/production/_ext/1032945309/MET_can_protocol.o
 .debug_info    0x000029b8     0x148a build/my_config/production/_ext/1032945309/MET_can_open.o
 .debug_info    0x00003e42     0x2720 build/my_config/production/_ext/1761505802/plib_can0.o
 .debug_info    0x00006562     0x2709 build/my_config/production/_ext/1761505802/plib_can1.o
 .debug_info    0x00008c6b      0xbec build/my_config/production/_ext/590292936/plib_clock.o
 .debug_info    0x00009857      0x65f build/my_config/production/_ext/592442422/plib_evsys.o
 .debug_info    0x00009eb6     0x12e8 build/my_config/production/_ext/1227547160/plib_nvic.o
 .debug_info    0x0000b19e     0x1792 build/my_config/production/_ext/1792891082/plib_nvmctrl.o
 .debug_info    0x0000c930      0xbe7 build/my_config/production/_ext/1761518284/plib_pac.o
 .debug_info    0x0000d517      0xe11 build/my_config/production/_ext/1227494009/plib_port.o
 .debug_info    0x0000e328     0x1c2b build/my_config/production/_ext/1761520795/plib_rtc_timer.o
 .debug_info    0x0000ff53      0xc97 build/my_config/production/_ext/220271371/plib_tc0.o
 .debug_info    0x00010bea      0xf04 build/my_config/production/_ext/64865378/initialization.o
 .debug_info    0x00011aee      0x8b2 build/my_config/production/_ext/64865378/startup_xc32.o
 .debug_info    0x000123a0     0x2262 build/my_config/production/_ext/64865378/interrupts.o
 .debug_info    0x00014602      0xfc0 build/my_config/production/_ext/64865378/exceptions.o
 .debug_info    0x000155c2     0x122a build/my_config/production/_ext/1360937237/main.o
 .debug_info    0x000167ec      0x2cd c:/program files/microchip/xc32/v3.01/bin/bin/../../lib/gcc/pic32c/8.3.1/../../../../pic32c/lib/thumb/v7e-m+fp/hard\libpic32c.a(data_init.o)

.debug_abbrev   0x00000000     0x24e8
 .debug_abbrev  0x00000000      0x1fb build/my_config/production/_ext/1032945309/MET_Bootloader.o
 .debug_abbrev  0x000001fb      0x2cd build/my_config/production/_ext/1032945309/MET_can_protocol.o
 .debug_abbrev  0x000004c8      0x266 build/my_config/production/_ext/1032945309/MET_can_open.o
 .debug_abbrev  0x0000072e      0x36f build/my_config/production/_ext/1761505802/plib_can0.o
 .debug_abbrev  0x00000a9d      0x363 build/my_config/production/_ext/1761505802/plib_can1.o
 .debug_abbrev  0x00000e00      0x115 build/my_config/production/_ext/590292936/plib_clock.o
 .debug_abbrev  0x00000f15       0xbb build/my_config/production/_ext/592442422/plib_evsys.o
 .debug_abbrev  0x00000fd0      0x212 build/my_config/production/_ext/1227547160/plib_nvic.o
 .debug_abbrev  0x000011e2      0x297 build/my_config/production/_ext/1792891082/plib_nvmctrl.o
 .debug_abbrev  0x00001479      0x147 build/my_config/production/_ext/1761518284/plib_pac.o
 .debug_abbrev  0x000015c0      0x19c build/my_config/production/_ext/1227494009/plib_port.o
 .debug_abbrev  0x0000175c      0x28c build/my_config/production/_ext/1761520795/plib_rtc_timer.o
 .debug_abbrev  0x000019e8      0x191 build/my_config/production/_ext/220271371/plib_tc0.o
 .debug_abbrev  0x00001b79      0x1ba build/my_config/production/_ext/64865378/initialization.o
 .debug_abbrev  0x00001d33      0x1f5 build/my_config/production/_ext/64865378/startup_xc32.o
 .debug_abbrev  0x00001f28      0x1cc build/my_config/production/_ext/64865378/interrupts.o
 .debug_abbrev  0x000020f4      0x1ac build/my_config/production/_ext/64865378/exceptions.o
 .debug_abbrev  0x000022a0      0x21a build/my_config/production/_ext/1360937237/main.o
 .debug_abbrev  0x000024ba       0x2e c:/program files/microchip/xc32/v3.01/bin/bin/../../lib/gcc/pic32c/8.3.1/../../../../pic32c/lib/thumb/v7e-m+fp/hard\libpic32c.a(data_init.o)

.debug_loc      0x00000000     0x2b70
 .debug_loc     0x00000000       0x58 build/my_config/production/_ext/1032945309/MET_Bootloader.o
 .debug_loc     0x00000058      0x224 build/my_config/production/_ext/1032945309/MET_can_protocol.o
 .debug_loc     0x0000027c      0x1dc build/my_config/production/_ext/1032945309/MET_can_open.o
 .debug_loc     0x00000458      0x5dc build/my_config/production/_ext/1761505802/plib_can0.o
 .debug_loc     0x00000a34      0x5dc build/my_config/production/_ext/1761505802/plib_can1.o
 .debug_loc     0x00001010      0x24c build/my_config/production/_ext/590292936/plib_clock.o
 .debug_loc     0x0000125c       0x44 build/my_config/production/_ext/592442422/plib_evsys.o
 .debug_loc     0x000012a0      0x23c build/my_config/production/_ext/1227547160/plib_nvic.o
 .debug_loc     0x000014dc      0x5c0 build/my_config/production/_ext/1792891082/plib_nvmctrl.o
 .debug_loc     0x00001a9c       0xfc build/my_config/production/_ext/1761518284/plib_pac.o
 .debug_loc     0x00001b98      0x3dc build/my_config/production/_ext/1227494009/plib_port.o
 .debug_loc     0x00001f74      0x52c build/my_config/production/_ext/1761520795/plib_rtc_timer.o
 .debug_loc     0x000024a0      0x3c0 build/my_config/production/_ext/220271371/plib_tc0.o
 .debug_loc     0x00002860       0x50 build/my_config/production/_ext/64865378/initialization.o
 .debug_loc     0x000028b0      0x11c build/my_config/production/_ext/64865378/startup_xc32.o
 .debug_loc     0x000029cc      0x108 build/my_config/production/_ext/64865378/exceptions.o
 .debug_loc     0x00002ad4       0x88 build/my_config/production/_ext/1360937237/main.o
 .debug_loc     0x00002b5c       0x14 c:/program files/microchip/xc32/v3.01/bin/bin/../../lib/gcc/pic32c/8.3.1/../../../../pic32c/lib/thumb/v7e-m+fp/hard\libpic32c.a(data_init.o)

.debug_aranges  0x00000000      0x660
 .debug_aranges
                0x00000000       0x28 build/my_config/production/_ext/1032945309/MET_Bootloader.o
 .debug_aranges
                0x00000028       0x50 build/my_config/production/_ext/1032945309/MET_can_protocol.o
 .debug_aranges
                0x00000078       0x50 build/my_config/production/_ext/1032945309/MET_can_open.o
 .debug_aranges
                0x000000c8       0xa8 build/my_config/production/_ext/1761505802/plib_can0.o
 .debug_aranges
                0x00000170       0xa8 build/my_config/production/_ext/1761505802/plib_can1.o
 .debug_aranges
                0x00000218       0x60 build/my_config/production/_ext/590292936/plib_clock.o
 .debug_aranges
                0x00000278       0x20 build/my_config/production/_ext/592442422/plib_evsys.o
 .debug_aranges
                0x00000298       0x50 build/my_config/production/_ext/1227547160/plib_nvic.o
 .debug_aranges
                0x000002e8       0xb0 build/my_config/production/_ext/1792891082/plib_nvmctrl.o
 .debug_aranges
                0x00000398       0x30 build/my_config/production/_ext/1761518284/plib_pac.o
 .debug_aranges
                0x000003c8       0x70 build/my_config/production/_ext/1227494009/plib_port.o
 .debug_aranges
                0x00000438       0xa0 build/my_config/production/_ext/1761520795/plib_rtc_timer.o
 .debug_aranges
                0x000004d8       0x78 build/my_config/production/_ext/220271371/plib_tc0.o
 .debug_aranges
                0x00000550       0x20 build/my_config/production/_ext/64865378/initialization.o
 .debug_aranges
                0x00000570       0x40 build/my_config/production/_ext/64865378/startup_xc32.o
 .debug_aranges
                0x000005b0       0x20 build/my_config/production/_ext/64865378/interrupts.o
 .debug_aranges
                0x000005d0       0x48 build/my_config/production/_ext/64865378/exceptions.o
 .debug_aranges
                0x00000618       0x28 build/my_config/production/_ext/1360937237/main.o
 .debug_aranges
                0x00000640       0x20 c:/program files/microchip/xc32/v3.01/bin/bin/../../lib/gcc/pic32c/8.3.1/../../../../pic32c/lib/thumb/v7e-m+fp/hard\libpic32c.a(data_init.o)

.debug_ranges   0x00000000      0x530
 .debug_ranges  0x00000000       0x18 build/my_config/production/_ext/1032945309/MET_Bootloader.o
 .debug_ranges  0x00000018       0x40 build/my_config/production/_ext/1032945309/MET_can_protocol.o
 .debug_ranges  0x00000058       0x40 build/my_config/production/_ext/1032945309/MET_can_open.o
 .debug_ranges  0x00000098       0x98 build/my_config/production/_ext/1761505802/plib_can0.o
 .debug_ranges  0x00000130       0x98 build/my_config/production/_ext/1761505802/plib_can1.o
 .debug_ranges  0x000001c8       0x50 build/my_config/production/_ext/590292936/plib_clock.o
 .debug_ranges  0x00000218       0x10 build/my_config/production/_ext/592442422/plib_evsys.o
 .debug_ranges  0x00000228       0x40 build/my_config/production/_ext/1227547160/plib_nvic.o
 .debug_ranges  0x00000268       0xa0 build/my_config/production/_ext/1792891082/plib_nvmctrl.o
 .debug_ranges  0x00000308       0x20 build/my_config/production/_ext/1761518284/plib_pac.o
 .debug_ranges  0x00000328       0x60 build/my_config/production/_ext/1227494009/plib_port.o
 .debug_ranges  0x00000388       0x90 build/my_config/production/_ext/1761520795/plib_rtc_timer.o
 .debug_ranges  0x00000418       0x68 build/my_config/production/_ext/220271371/plib_tc0.o
 .debug_ranges  0x00000480       0x10 build/my_config/production/_ext/64865378/initialization.o
 .debug_ranges  0x00000490       0x30 build/my_config/production/_ext/64865378/startup_xc32.o
 .debug_ranges  0x000004c0       0x10 build/my_config/production/_ext/64865378/interrupts.o
 .debug_ranges  0x000004d0       0x38 build/my_config/production/_ext/64865378/exceptions.o
 .debug_ranges  0x00000508       0x18 build/my_config/production/_ext/1360937237/main.o
 .debug_ranges  0x00000520       0x10 c:/program files/microchip/xc32/v3.01/bin/bin/../../lib/gcc/pic32c/8.3.1/../../../../pic32c/lib/thumb/v7e-m+fp/hard\libpic32c.a(data_init.o)

.debug_line     0x00000000     0x3cd5
 .debug_line    0x00000000      0x201 build/my_config/production/_ext/1032945309/MET_Bootloader.o
 .debug_line    0x00000201      0x2e8 build/my_config/production/_ext/1032945309/MET_can_protocol.o
 .debug_line    0x000004e9      0x2c7 build/my_config/production/_ext/1032945309/MET_can_open.o
 .debug_line    0x000007b0      0x8dc build/my_config/production/_ext/1761505802/plib_can0.o
 .debug_line    0x0000108c      0x7ca build/my_config/production/_ext/1761505802/plib_can1.o
 .debug_line    0x00001856      0x365 build/my_config/production/_ext/590292936/plib_clock.o
 .debug_line    0x00001bbb      0x174 build/my_config/production/_ext/592442422/plib_evsys.o
 .debug_line    0x00001d2f      0x2cf build/my_config/production/_ext/1227547160/plib_nvic.o
 .debug_line    0x00001ffe      0x4b7 build/my_config/production/_ext/1792891082/plib_nvmctrl.o
 .debug_line    0x000024b5      0x1c7 build/my_config/production/_ext/1761518284/plib_pac.o
 .debug_line    0x0000267c      0x32b build/my_config/production/_ext/1227494009/plib_port.o
 .debug_line    0x000029a7      0x492 build/my_config/production/_ext/1761520795/plib_rtc_timer.o
 .debug_line    0x00002e39      0x380 build/my_config/production/_ext/220271371/plib_tc0.o
 .debug_line    0x000031b9      0x1a5 build/my_config/production/_ext/64865378/initialization.o
 .debug_line    0x0000335e      0x231 build/my_config/production/_ext/64865378/startup_xc32.o
 .debug_line    0x0000358f      0x1a6 build/my_config/production/_ext/64865378/interrupts.o
 .debug_line    0x00003735      0x1fd build/my_config/production/_ext/64865378/exceptions.o
 .debug_line    0x00003932      0x293 build/my_config/production/_ext/1360937237/main.o
 .debug_line    0x00003bc5      0x110 c:/program files/microchip/xc32/v3.01/bin/bin/../../lib/gcc/pic32c/8.3.1/../../../../pic32c/lib/thumb/v7e-m+fp/hard\libpic32c.a(data_init.o)

.debug_str      0x00000000      0x3de
 .debug_str     0x00000000        0xe build/my_config/production/_ext/1032945309/MET_Bootloader.o
 .debug_str     0x0000000e        0xe build/my_config/production/_ext/1032945309/MET_can_protocol.o
 .debug_str     0x0000001c        0xe build/my_config/production/_ext/1032945309/MET_can_open.o
 .debug_str     0x0000002a       0x96 build/my_config/production/_ext/1761505802/plib_can0.o
 .debug_str     0x000000c0       0x96 build/my_config/production/_ext/1761505802/plib_can1.o
 .debug_str     0x00000156       0x1e build/my_config/production/_ext/590292936/plib_clock.o
 .debug_str     0x00000174        0x0 build/my_config/production/_ext/592442422/plib_evsys.o
 .debug_str     0x00000174        0xa build/my_config/production/_ext/1227547160/plib_nvic.o
 .debug_str     0x0000017e       0x29 build/my_config/production/_ext/1792891082/plib_nvmctrl.o
 .debug_str     0x000001a7        0xb build/my_config/production/_ext/1761518284/plib_pac.o
 .debug_str     0x000001b2        0xb build/my_config/production/_ext/1227494009/plib_port.o
 .debug_str     0x000001bd      0x123 build/my_config/production/_ext/1761520795/plib_rtc_timer.o
 .debug_str     0x000002e0       0xc6 build/my_config/production/_ext/220271371/plib_tc0.o
 .debug_str     0x000003a6        0xe build/my_config/production/_ext/64865378/initialization.o
 .debug_str     0x000003b4        0x0 build/my_config/production/_ext/64865378/startup_xc32.o
 .debug_str     0x000003b4        0xe build/my_config/production/_ext/64865378/interrupts.o
 .debug_str     0x000003c2        0xe build/my_config/production/_ext/64865378/exceptions.o
 .debug_str     0x000003d0        0xe build/my_config/production/_ext/1360937237/main.o
 .debug_str     0x000003de        0x0 c:/program files/microchip/xc32/v3.01/bin/bin/../../lib/gcc/pic32c/8.3.1/../../../../pic32c/lib/thumb/v7e-m+fp/hard\libpic32c.a(data_init.o)

.debug_frame    0x00000000     0x1574
 .debug_frame   0x00000000       0x44 build/my_config/production/_ext/1032945309/MET_Bootloader.o
 .debug_frame   0x00000044      0x114 build/my_config/production/_ext/1032945309/MET_can_protocol.o
 .debug_frame   0x00000158      0x104 build/my_config/production/_ext/1032945309/MET_can_open.o
 .debug_frame   0x0000025c      0x2b4 build/my_config/production/_ext/1761505802/plib_can0.o
 .debug_frame   0x00000510      0x2b4 build/my_config/production/_ext/1761505802/plib_can1.o
 .debug_frame   0x000007c4      0x12c build/my_config/production/_ext/590292936/plib_clock.o
 .debug_frame   0x000008f0       0x30 build/my_config/production/_ext/592442422/plib_evsys.o
 .debug_frame   0x00000920      0x114 build/my_config/production/_ext/1227547160/plib_nvic.o
 .debug_frame   0x00000a34      0x2ac build/my_config/production/_ext/1792891082/plib_nvmctrl.o
 .debug_frame   0x00000ce0       0x80 build/my_config/production/_ext/1761518284/plib_pac.o
 .debug_frame   0x00000d60      0x1c0 build/my_config/production/_ext/1227494009/plib_port.o
 .debug_frame   0x00000f20      0x26c build/my_config/production/_ext/1761520795/plib_rtc_timer.o
 .debug_frame   0x0000118c      0x1c0 build/my_config/production/_ext/220271371/plib_tc0.o
 .debug_frame   0x0000134c       0x34 build/my_config/production/_ext/64865378/initialization.o
 .debug_frame   0x00001380       0xa8 build/my_config/production/_ext/64865378/startup_xc32.o
 .debug_frame   0x00001428       0x20 build/my_config/production/_ext/64865378/interrupts.o
 .debug_frame   0x00001448       0xa0 build/my_config/production/_ext/64865378/exceptions.o
 .debug_frame   0x000014e8       0x54 build/my_config/production/_ext/1360937237/main.o
 .debug_frame   0x0000153c       0x38 c:/program files/microchip/xc32/v3.01/bin/bin/../../lib/gcc/pic32c/8.3.1/../../../../pic32c/lib/thumb/v7e-m+fp/hard\libpic32c.a(data_init.o)

.stack          0x20000400      0x100
 .stack         0x20000400      0x100 stack

.bss%1          0x2000008c       0x71
 .bss           0x2000008c       0x71 build/my_config/production/_ext/1761505802/plib_can0.o

.bss%2          0x20000100       0x71
 .bss           0x20000100       0x71 build/my_config/production/_ext/1761505802/plib_can1.o

.bss%3          0x20000174       0x68
 .bss           0x20000174       0x28 build/my_config/production/_ext/1032945309/MET_can_protocol.o
                0x20000174                msgFrameAttr0
 .bss           0x2000019c       0x24 build/my_config/production/_ext/1032945309/MET_can_open.o
                0x2000019c                msgFrameAttr
 .bss           0x200001c0       0x1c c:/program files/microchip/xc32/v3.01/bin/bin/../../lib/gcc/pic32c/8.3.1/thumb/v7e-m+fp/hard/crtbegin.o

.bss%6          0x20000010        0xc
 .bss           0x20000010        0xc build/my_config/production/_ext/1761520795/plib_rtc_timer.o

.data%7         0x2000001c        0x4
 .data          0x2000001c        0x4 build/my_config/production/_ext/1032945309/MET_Bootloader.o
                0x2000001c                ramBootloaderTable

.bss%8          0x200001dc        0x4
 .bss           0x200001dc        0x4 c:/program files/microchip/xc32/v3.01/bin/bin/../../lib/gcc/pic32c/8.3.1/../../../../pic32c/lib/thumb/v7e-m+fp/hard\libpic32c.a(data_init.o)

.bss%9          0x200000fd        0x1
 .bss           0x200000fd        0x1 build/my_config/production/_ext/1360937237/main.o

.eh_frame%z1    0x00000000        0x0
 .eh_frame      0x00000000        0x0 c:/program files/microchip/xc32/v3.01/bin/bin/../../lib/gcc/pic32c/8.3.1/thumb/v7e-m+fp/hard/crtbegin.o

._BOOTLOADER_CAN_ID%10
                0x00002000        0x4
 ._BOOTLOADER_CAN_ID
                0x00002000        0x4 build/my_config/production/_ext/1032945309/MET_can_protocol.o
                0x00002000                _BOOTLOADER_CAN_ID

.text.CAN0_InterruptHandler%11
                0x00002480      0x498
 .text.CAN0_InterruptHandler
                0x00002480      0x498 build/my_config/production/_ext/1761505802/plib_can0.o
                0x00002480                CAN0_InterruptHandler

.text.CAN1_InterruptHandler%12
                0x00002918      0x2c8
 .text.CAN1_InterruptHandler
                0x00002918      0x2c8 build/my_config/production/_ext/1761505802/plib_can1.o
                0x00002918                CAN1_InterruptHandler

.text.CAN0_MessageReceive%13
                0x00002be0      0x188
 .text.CAN0_MessageReceive
                0x00002be0      0x188 build/my_config/production/_ext/1761505802/plib_can0.o
                0x00002be0                CAN0_MessageReceive

.text.CAN0_MessageTransmit%14
                0x00002d68      0x13c
 .text.CAN0_MessageTransmit
                0x00002d68      0x13c build/my_config/production/_ext/1761505802/plib_can0.o
                0x00002d68                CAN0_MessageTransmit

.text.CAN0_MessageRAMConfigSet%15
                0x00002ea4      0x130
 .text.CAN0_MessageRAMConfigSet
                0x00002ea4      0x130 build/my_config/production/_ext/1761505802/plib_can0.o
                0x00002ea4                CAN0_MessageRAMConfigSet

.text.CAN1_MessageRAMConfigSet%16
                0x00002fd4       0xf4
 .text.CAN1_MessageRAMConfigSet
                0x00002fd4       0xf4 build/my_config/production/_ext/1761505802/plib_can1.o
                0x00002fd4                CAN1_MessageRAMConfigSet

.text.CAN1_MessageReceive%17
                0x000030c8       0xd8
 .text.CAN1_MessageReceive
                0x000030c8       0xd8 build/my_config/production/_ext/1761505802/plib_can1.o
                0x000030c8                CAN1_MessageReceive

.text.CAN0_Initialize%18
                0x000031a0       0xc4
 .text.CAN0_Initialize
                0x000031a0       0xc4 build/my_config/production/_ext/1761505802/plib_can0.o
                0x000031a0                CAN0_Initialize

.text.CAN1_Initialize%19
                0x00003264       0xac
 .text.CAN1_Initialize
                0x00003264       0xac build/my_config/production/_ext/1761505802/plib_can1.o
                0x00003264                CAN1_Initialize

.text.CLOCK_Initialize%20
                0x00003310       0xac
 .text.CLOCK_Initialize
                0x00003310       0xac build/my_config/production/_ext/590292936/plib_clock.o
                0x00003310                CLOCK_Initialize

.dinit%21       0x000033bc       0x90
 .dinit         0x000033bc       0x90 data_init

.text.__pic32c_data_initialization%22
                0x0000344c       0x88
 .text.__pic32c_data_initialization
                0x0000344c       0x88 c:/program files/microchip/xc32/v3.01/bin/bin/../../lib/gcc/pic32c/8.3.1/../../../../pic32c/lib/thumb/v7e-m+fp/hard\libpic32c.a(data_init.o)
                0x0000344c                __pic32c_data_initialization

.text.PORT_Initialize%23
                0x000034d4       0x84
 .text.PORT_Initialize
                0x000034d4       0x84 build/my_config/production/_ext/1227494009/plib_port.o
                0x000034d4                PORT_Initialize

.text.CAN0_ErrorGet%24
                0x00003558       0x6c
 .text.CAN0_ErrorGet
                0x00003558       0x6c build/my_config/production/_ext/1761505802/plib_can0.o
                0x00003558                CAN0_ErrorGet

.text.FDPLL0_Initialize%25
                0x000035c4       0x6c
 .text.FDPLL0_Initialize
                0x000035c4       0x6c build/my_config/production/_ext/590292936/plib_clock.o

.text.CAN1_ErrorGet%26
                0x00003630       0x64
 .text.CAN1_ErrorGet
                0x00003630       0x64 build/my_config/production/_ext/1761505802/plib_can1.o
                0x00003630                CAN1_ErrorGet

.text.MET_Can_Protocol_Start%27
                0x00003694       0x5c
 .text.MET_Can_Protocol_Start
                0x00003694       0x5c build/my_config/production/_ext/1032945309/MET_can_protocol.o
                0x00003694                MET_Can_Protocol_Start

.text.RTC_Initialize%28
                0x000036f0       0x5c
 .text.RTC_Initialize
                0x000036f0       0x5c build/my_config/production/_ext/1761520795/plib_rtc_timer.o
                0x000036f0                RTC_Initialize

.text.main%29   0x0000374c       0x5c
 .text.main     0x0000374c       0x5c build/my_config/production/_ext/1360937237/main.o
                0x0000374c                main

.text.MET_Can_Protocol_TestFrame%30
                0x000037a8       0x58
 .text.MET_Can_Protocol_TestFrame
                0x000037a8       0x58 build/my_config/production/_ext/1032945309/MET_can_protocol.o
                0x000037a8                MET_Can_Protocol_TestFrame

.text.MET_Can_Open_Start%31
                0x00003800       0x58
 .text.MET_Can_Open_Start
                0x00003800       0x58 build/my_config/production/_ext/1032945309/MET_can_open.o
                0x00003800                MET_Can_Open_Start

.text.__NVIC_SetPriority%32
                0x00003858       0x54
 .text.__NVIC_SetPriority
                0x00003858       0x54 build/my_config/production/_ext/1227547160/plib_nvic.o

.text.Reset_Handler%33
                0x000038ac       0x54
 .text.Reset_Handler
                0x000038ac       0x54 build/my_config/production/_ext/64865378/startup_xc32.o
                0x000038ac                Reset_Handler

.text.TC0_CompareInitialize%34
                0x00003900       0x50
 .text.TC0_CompareInitialize
                0x00003900       0x50 build/my_config/production/_ext/220271371/plib_tc0.o
                0x00003900                TC0_CompareInitialize

.text.__NVIC_SetPriorityGrouping%35
                0x00003950       0x48
 .text.__NVIC_SetPriorityGrouping
                0x00003950       0x48 build/my_config/production/_ext/1227547160/plib_nvic.o

.text.__libc_init_array%36
                0x00003998       0x48
 .text.__libc_init_array
                0x00003998       0x48 c:/program files/microchip/xc32/v3.01/bin/bin/../../lib/gcc/pic32c/8.3.1/../../../../pic32c/lib/thumb/v7e-m+fp/hard\libc_nano.a(lib_a-init.o)
                0x00003998                __libc_init_array

.text.GCLK0_Initialize%37
                0x000039e0       0x44
 .text.GCLK0_Initialize
                0x000039e0       0x44 build/my_config/production/_ext/590292936/plib_clock.o

.text.FPU_Enable%38
                0x00003a24       0x44
 .text.FPU_Enable
                0x00003a24       0x44 build/my_config/production/_ext/64865378/startup_xc32.o

.text%39        0x00003a68       0x40
 .text          0x00003a68       0x40 c:/program files/microchip/xc32/v3.01/bin/bin/../../lib/gcc/pic32c/8.3.1/thumb/v7e-m+fp/hard/crtbegin.o

.text.MET_Can_Protocol_Reception_Callback%40
                0x00003aa8       0x40
 .text.MET_Can_Protocol_Reception_Callback
                0x00003aa8       0x40 build/my_config/production/_ext/1032945309/MET_can_protocol.o
                0x00003aa8                MET_Can_Protocol_Reception_Callback

.text.MET_Can_Open_Reception_Callback%41
                0x00003ae8       0x40
 .text.MET_Can_Open_Reception_Callback
                0x00003ae8       0x40 build/my_config/production/_ext/1032945309/MET_can_open.o
                0x00003ae8                MET_Can_Open_Reception_Callback

.text.ICache_Enable%42
                0x00003b28       0x40
 .text.ICache_Enable
                0x00003b28       0x40 build/my_config/production/_ext/64865378/startup_xc32.o

.text.NVIC_Initialize%43
                0x00003b68       0x3e
 .text.NVIC_Initialize
                0x00003b68       0x3e build/my_config/production/_ext/1227547160/plib_nvic.o
                0x00003b68                NVIC_Initialize

.text.CAN0_RxCallbackRegister%44
                0x00003ba8       0x3c
 .text.CAN0_RxCallbackRegister
                0x00003ba8       0x3c build/my_config/production/_ext/1761505802/plib_can0.o
                0x00003ba8                CAN0_RxCallbackRegister

.text.CAN1_RxCallbackRegister%45
                0x00003be4       0x3c
 .text.CAN1_RxCallbackRegister
                0x00003be4       0x3c build/my_config/production/_ext/1761505802/plib_can1.o
                0x00003be4                CAN1_RxCallbackRegister

.text.__NVIC_EnableIRQ%46
                0x00003c20       0x3c
 .text.__NVIC_EnableIRQ
                0x00003c20       0x3c build/my_config/production/_ext/1227547160/plib_nvic.o

.text.RTC_InterruptHandler%47
                0x00003c5c       0x3c
 .text.RTC_InterruptHandler
                0x00003c5c       0x3c build/my_config/production/_ext/1761520795/plib_rtc_timer.o
                0x00003c5c                RTC_InterruptHandler

.text.MET_Can_Protocol_Init%48
                0x00003c98       0x38
 .text.MET_Can_Protocol_Init
                0x00003c98       0x38 build/my_config/production/_ext/1032945309/MET_can_protocol.o
                0x00003c98                MET_Can_Protocol_Init

.text.MET_Can_Open_Loop%49
                0x00003cd0       0x38
 .text.MET_Can_Open_Loop
                0x00003cd0       0x38 build/my_config/production/_ext/1032945309/MET_can_open.o
                0x00003cd0                MET_Can_Open_Loop

.text.SYS_Initialize%50
                0x00003d08       0x38
 .text.SYS_Initialize
                0x00003d08       0x38 build/my_config/production/_ext/64865378/initialization.o
                0x00003d08                SYS_Initialize

.text.rtcEventHandler%51
                0x00003d40       0x38
 .text.rtcEventHandler
                0x00003d40       0x38 build/my_config/production/_ext/1360937237/main.o

.text.CANDlcToLengthGet%52
                0x00003d78       0x60
 .text.CANDlcToLengthGet
                0x00003d78       0x30 build/my_config/production/_ext/1761505802/plib_can0.o
 .text.CANDlcToLengthGet
                0x00003da8       0x30 build/my_config/production/_ext/1761505802/plib_can1.o

.text.OSC32KCTRL_Initialize%54
                0x00003dd8       0x30
 .text.OSC32KCTRL_Initialize
                0x00003dd8       0x30 build/my_config/production/_ext/590292936/plib_clock.o

.text.RTC_Timer32Start%55
                0x00003e08       0x30
 .text.RTC_Timer32Start
                0x00003e08       0x30 build/my_config/production/_ext/1761520795/plib_rtc_timer.o
                0x00003e08                RTC_Timer32Start

.text.GCLK1_Initialize%56
                0x00003e38       0x2c
 .text.GCLK1_Initialize
                0x00003e38       0x2c build/my_config/production/_ext/590292936/plib_clock.o

.text.GCLK2_Initialize%57
                0x00003e64       0x2c
 .text.GCLK2_Initialize
                0x00003e64       0x2c build/my_config/production/_ext/590292936/plib_clock.o

.text.GCLK3_Initialize%58
                0x00003e90       0x2c
 .text.GCLK3_Initialize
                0x00003e90       0x2c build/my_config/production/_ext/590292936/plib_clock.o

.text.TC0_CompareStart%59
                0x00003ebc       0x2c
 .text.TC0_CompareStart
                0x00003ebc       0x2c build/my_config/production/_ext/220271371/plib_tc0.o
                0x00003ebc                TC0_CompareStart

.text.RTC_Timer32CallbackRegister%60
                0x00003ee8       0x28
 .text.RTC_Timer32CallbackRegister
                0x00003ee8       0x28 build/my_config/production/_ext/1761520795/plib_rtc_timer.o
                0x00003ee8                RTC_Timer32CallbackRegister

.text.EVSYS_Initialize%61
                0x00003f10       0x24
 .text.EVSYS_Initialize
                0x00003f10       0x24 build/my_config/production/_ext/592442422/plib_evsys.o
                0x00003f10                EVSYS_Initialize

.text.TCM_Configure%62
                0x00003f34       0x24
 .text.TCM_Configure
                0x00003f34       0x24 build/my_config/production/_ext/64865378/startup_xc32.o

.text.MET_DefaultError_Callback%63
                0x00003f58       0x1c
 .text.MET_DefaultError_Callback
                0x00003f58       0x1c build/my_config/production/_ext/1032945309/MET_can_protocol.o
                0x00003f58                MET_DefaultError_Callback

.text.MET_CanOpen_Error_Callback%64
                0x00003f74       0x1c
 .text.MET_CanOpen_Error_Callback
                0x00003f74       0x1c build/my_config/production/_ext/1032945309/MET_can_open.o
                0x00003f74                MET_CanOpen_Error_Callback

.text.NVMCTRL_Initialize%65
                0x00003f90       0x1c
 .text.NVMCTRL_Initialize
                0x00003f90       0x1c build/my_config/production/_ext/1792891082/plib_nvmctrl.o
                0x00003f90                NVMCTRL_Initialize

.text.memcpy%66
                0x00003fac       0x1c
 .text.memcpy   0x00003fac       0x1c c:/program files/microchip/xc32/v3.01/bin/bin/../../lib/gcc/pic32c/8.3.1/../../../../pic32c/lib/thumb/v7e-m+fp/hard\libc_nano.a(lib_a-memcpy-stub.o)
                0x00003fac                memcpy

.rodata%67      0x00003fc8       0x18
 .rodata        0x00003fc8       0x18 build/my_config/production/_ext/1761505802/plib_can0.o

.text.MET_Can_Open_Init%68
                0x00003fe0       0x14
 .text.MET_Can_Open_Init
                0x00003fe0       0x14 build/my_config/production/_ext/1032945309/MET_can_open.o
                0x00003fe0                MET_Can_Open_Init

.rodata%69      0x00003ff4       0x14
 .rodata        0x00003ff4       0x14 build/my_config/production/_ext/1761505802/plib_can1.o

.text.memset%70
                0x00004008       0x10
 .text.memset   0x00004008       0x10 c:/program files/microchip/xc32/v3.01/bin/bin/../../lib/gcc/pic32c/8.3.1/../../../../pic32c/lib/thumb/v7e-m+fp/hard\libc_nano.a(lib_a-memset.o)
                0x00004008                memset

.text.OSCCTRL_Initialize%71
                0x00004018        0xe
 .text.OSCCTRL_Initialize
                0x00004018        0xe build/my_config/production/_ext/590292936/plib_clock.o

.text.DFLL_Initialize%72
                0x00004026        0xe
 .text.DFLL_Initialize
                0x00004026        0xe build/my_config/production/_ext/590292936/plib_clock.o

.text.PAC_Initialize%73
                0x00004034        0xe
 .text.PAC_Initialize
                0x00004034        0xe build/my_config/production/_ext/1761518284/plib_pac.o
                0x00004034                PAC_Initialize

.text.NonMaskableInt_Handler%74
                0x00004042        0x6
 .text.NonMaskableInt_Handler
                0x00004042        0x6 build/my_config/production/_ext/64865378/exceptions.o
                0x00004042                NonMaskableInt_Handler

.text.HardFault_Handler%75
                0x00004048        0x6
 .text.HardFault_Handler
                0x00004048        0x6 build/my_config/production/_ext/64865378/exceptions.o
                0x00004048                HardFault_Handler

.text.DebugMonitor_Handler%76
                0x0000404e        0x6
 .text.DebugMonitor_Handler
                0x0000404e        0x6 build/my_config/production/_ext/64865378/exceptions.o
                0x0000404e                DebugMonitor_Handler

.text.MemoryManagement_Handler%77
                0x00004054        0x6
 .text.MemoryManagement_Handler
                0x00004054        0x6 build/my_config/production/_ext/64865378/exceptions.o
                0x00004054                MemoryManagement_Handler

.text.BusFault_Handler%78
                0x0000405a        0x6
 .text.BusFault_Handler
                0x0000405a        0x6 build/my_config/production/_ext/64865378/exceptions.o
                0x0000405a                BusFault_Handler

.text.UsageFault_Handler%79
                0x00004060        0x6
 .text.UsageFault_Handler
                0x00004060        0x6 build/my_config/production/_ext/64865378/exceptions.o
                0x00004060                UsageFault_Handler

.text.Dummy_App_Func%80
                0x00003ba6        0x2
 .text.Dummy_App_Func
                0x00003ba6        0x2 build/my_config/production/_ext/64865378/startup_xc32.o
                0x00003ba6                _on_reset
                0x00003ba6                _on_bootstrap
                0x00003ba6                __xc32_on_reset
                0x00003ba6                Dummy_App_Func
                0x00003ba6                __xc32_on_bootstrap

.text.Dummy_Handler%81
                0x00004066        0x2
 .text.Dummy_Handler
                0x00004066        0x2 build/my_config/production/_ext/64865378/interrupts.o
                0x00004066                EIC_EXTINT_9_Handler
                0x00004066                TCC0_MC5_Handler
                0x00004066                SVCall_Handler
                0x00004066                SERCOM0_2_Handler
                0x00004066                USB_SOF_HSOF_Handler
                0x00004066                TCC4_OTHER_Handler
                0x00004066                TCC2_MC2_Handler
                0x00004066                EVSYS_0_Handler
                0x00004066                TRNG_Handler
                0x00004066                TC2_Handler
                0x00004066                USB_TRCPT0_Handler
                0x00004066                DAC_OTHER_Handler
                0x00004066                AC_Handler
                0x00004066                DAC_EMPTY_0_Handler
                0x00004066                DMAC_OTHER_Handler
                0x00004066                EIC_EXTINT_5_Handler
                0x00004066                SERCOM3_1_Handler
                0x00004066                SysTick_Handler
                0x00004066                SERCOM4_OTHER_Handler
                0x00004066                SERCOM3_2_Handler
                0x00004066                EIC_EXTINT_6_Handler
                0x00004066                PendSV_Handler
                0x00004066                TCC4_MC0_Handler
                0x00004066                EVSYS_3_Handler
                0x00004066                QSPI_Handler
                0x00004066                TCC2_MC0_Handler
                0x00004066                PDEC_OTHER_Handler
                0x00004066                TCC3_MC0_Handler
                0x00004066                PDEC_MC1_Handler
                0x00004066                TCC2_MC1_Handler
                0x00004066                OSCCTRL_XOSC1_Handler
                0x00004066                PDEC_MC0_Handler
                0x00004066                EIC_EXTINT_4_Handler
                0x00004066                EIC_EXTINT_7_Handler
                0x00004066                SERCOM0_OTHER_Handler
                0x00004066                EVSYS_OTHER_Handler
                0x00004066                SERCOM0_0_Handler
                0x00004066                SERCOM4_0_Handler
                0x00004066                TCC1_MC0_Handler
                0x00004066                SERCOM1_OTHER_Handler
                0x00004066                TCC2_OTHER_Handler
                0x00004066                EIC_EXTINT_11_Handler
                0x00004066                SUPC_BODDET_Handler
                0x00004066                EIC_EXTINT_14_Handler
                0x00004066                OSC32KCTRL_Handler
                0x00004066                EVSYS_1_Handler
                0x00004066                TCC4_MC1_Handler
                0x00004066                DMAC_0_Handler
                0x00004066                SUPC_OTHER_Handler
                0x00004066                WDT_Handler
                0x00004066                EIC_EXTINT_15_Handler
                0x00004066                EIC_EXTINT_1_Handler
                0x00004066                TCC3_MC1_Handler
                0x00004066                SERCOM5_0_Handler
                0x00004066                TC4_Handler
                0x00004066                TC1_Handler
                0x00004066                TCC1_MC1_Handler
                0x00004066                EIC_EXTINT_0_Handler
                0x00004066                TCC1_OTHER_Handler
                0x00004066                PAC_Handler
                0x00004066                SERCOM4_1_Handler
                0x00004066                TC3_Handler
                0x00004066                Dummy_Handler
                0x00004066                DAC_RESRDY_0_Handler
                0x00004066                SERCOM5_1_Handler
                0x00004066                DMAC_2_Handler
                0x00004066                TCC0_MC4_Handler
                0x00004066                USB_TRCPT1_Handler
                0x00004066                SERCOM0_1_Handler
                0x00004066                TCC0_MC3_Handler
                0x00004066                EIC_EXTINT_12_Handler
                0x00004066                OSCCTRL_DPLL0_Handler
                0x00004066                SERCOM5_OTHER_Handler
                0x00004066                PM_Handler
                0x00004066                OSCCTRL_DFLL_Handler
                0x00004066                DAC_RESRDY_1_Handler
                0x00004066                DMAC_1_Handler
                0x00004066                USB_OTHER_Handler
                0x00004066                TCC0_OTHER_Handler
                0x00004066                EIC_EXTINT_10_Handler
                0x00004066                TCC1_MC3_Handler
                0x00004066                OSCCTRL_XOSC0_Handler
                0x00004066                TCC0_MC0_Handler
                0x00004066                EIC_EXTINT_2_Handler
                0x00004066                SDHC0_Handler
                0x00004066                SERCOM1_1_Handler
                0x00004066                I2S_Handler
                0x00004066                PCC_Handler
                0x00004066                TCC3_OTHER_Handler
                0x00004066                EIC_EXTINT_13_Handler
                0x00004066                SERCOM1_0_Handler
                0x00004066                PUKCC_Handler
                0x00004066                SERCOM2_1_Handler
                0x00004066                SERCOM1_2_Handler
                0x00004066                SERCOM3_0_Handler
                0x00004066                SERCOM4_2_Handler
                0x00004066                TCC1_MC2_Handler
                0x00004066                ADC1_RESRDY_Handler
                0x00004066                NVMCTRL_1_Handler
                0x00004066                SERCOM5_2_Handler
                0x00004066                SERCOM2_2_Handler
                0x00004066                DAC_EMPTY_1_Handler
                0x00004066                ADC1_OTHER_Handler
                0x00004066                OSCCTRL_DPLL1_Handler
                0x00004066                EIC_EXTINT_3_Handler
                0x00004066                SERCOM3_OTHER_Handler
                0x00004066                EIC_EXTINT_8_Handler
                0x00004066                NVMCTRL_0_Handler
                0x00004066                ADC0_RESRDY_Handler
                0x00004066                ADC0_OTHER_Handler
                0x00004066                MCLK_Handler
                0x00004066                EVSYS_2_Handler
                0x00004066                SERCOM2_OTHER_Handler
                0x00004066                FREQM_Handler
                0x00004066                TC0_Handler
                0x00004066                TCC0_MC1_Handler
                0x00004066                DMAC_3_Handler
                0x00004066                RAMECC_Handler
                0x00004066                TC5_Handler
                0x00004066                SERCOM2_0_Handler
                0x00004066                AES_Handler
                0x00004066                ICM_Handler
                0x00004066                TCC0_MC2_Handler
